; ModuleID = 'source-C-CXX/52/114.c'
source_filename = "source-C-CXX/52/114.c"
target datalayout = "e-m:e-p270:32:32-p271:32:32-p272:64:64-i64:64-f80:128-n8:16:32:64-S128"
target triple = "x86_64-pc-linux-gnu"

@.str = private unnamed_addr constant [3 x i8] c"%d\00", align 1
@.str.1 = private unnamed_addr constant [4 x i8] c"%d,\00", align 1

; Function Attrs: nofree nounwind sspstrong uwtable
define dso_local void @main() local_unnamed_addr #0 {
  %1 = alloca [300 x i32], align 16
  %2 = alloca [300 x i32], align 16
  %3 = alloca i32, align 4
  %4 = bitcast [300 x i32]* %1 to i8*
  call void @llvm.lifetime.start.p0i8(i64 1200, i8* nonnull %4) #3
  %5 = bitcast [300 x i32]* %2 to i8*
  call void @llvm.lifetime.start.p0i8(i64 1200, i8* nonnull %5) #3
  %6 = bitcast i32* %3 to i8*
  call void @llvm.lifetime.start.p0i8(i64 4, i8* nonnull %6) #3
  %7 = call i32 (i8*, ...) @__isoc99_scanf(i8* getelementptr inbounds ([3 x i8], [3 x i8]* @.str, i64 0, i64 0), i32* nonnull %3)
  %8 = load i32, i32* %3, align 4, !tbaa !5
  %9 = icmp slt i32 %8, 1
  br i1 %9, label %48, label %10

10:                                               ; preds = %0, %10
  %11 = phi i64 [ %15, %10 ], [ 1, %0 ]
  %12 = add nsw i64 %11, -1
  %13 = getelementptr inbounds [300 x i32], [300 x i32]* %1, i64 0, i64 %12
  %14 = call i32 (i8*, ...) @__isoc99_scanf(i8* getelementptr inbounds ([3 x i8], [3 x i8]* @.str, i64 0, i64 0), i32* nonnull %13)
  %15 = add nuw nsw i64 %11, 1
  %16 = load i32, i32* %3, align 4, !tbaa !5
  %17 = sext i32 %16 to i64
  %18 = icmp slt i64 %11, %17
  br i1 %18, label %10, label %19, !llvm.loop !9

19:                                               ; preds = %10
  %20 = sext i32 %16 to i64
  %21 = getelementptr inbounds [300 x i32], [300 x i32]* %1, i64 0, i64 %20
  %22 = icmp sgt i32 %16, 0
  br i1 %22, label %23, label %48

23:                                               ; preds = %19
  %24 = getelementptr inbounds [300 x i32], [300 x i32]* %1, i64 0, i64 0
  br label %25

25:                                               ; preds = %23, %46
  %26 = phi i32* [ %28, %46 ], [ %24, %23 ]
  %27 = phi i32 [ %47, %46 ], [ 0, %23 ]
  %28 = getelementptr inbounds i32, i32* %26, i64 1
  %29 = icmp ult i32* %28, %21
  br i1 %29, label %30, label %39

30:                                               ; preds = %25, %36
  %31 = phi i32* [ %37, %36 ], [ %28, %25 ]
  %32 = load i32, i32* %31, align 4, !tbaa !5
  %33 = load i32, i32* %26, align 4, !tbaa !5
  %34 = icmp eq i32 %32, %33
  br i1 %34, label %35, label %36

35:                                               ; preds = %30
  store i32 0, i32* %31, align 4, !tbaa !5
  br label %36

36:                                               ; preds = %30, %35
  %37 = getelementptr inbounds i32, i32* %31, i64 1
  %38 = icmp ult i32* %37, %21
  br i1 %38, label %30, label %39, !llvm.loop !11

39:                                               ; preds = %36, %25
  %40 = load i32, i32* %26, align 4, !tbaa !5
  %41 = icmp eq i32 %40, 0
  br i1 %41, label %46, label %42

42:                                               ; preds = %39
  %43 = sext i32 %27 to i64
  %44 = getelementptr inbounds [300 x i32], [300 x i32]* %2, i64 0, i64 %43
  store i32 %40, i32* %44, align 4, !tbaa !5
  %45 = add nsw i32 %27, 1
  br label %46

46:                                               ; preds = %39, %42
  %47 = phi i32 [ %45, %42 ], [ %27, %39 ]
  br i1 %29, label %25, label %48, !llvm.loop !12

48:                                               ; preds = %46, %0, %19
  %49 = phi i32 [ 0, %19 ], [ 0, %0 ], [ %47, %46 ]
  %50 = getelementptr inbounds [300 x i32], [300 x i32]* %2, i64 0, i64 0
  %51 = sext i32 %49 to i64
  %52 = getelementptr inbounds [300 x i32], [300 x i32]* %2, i64 0, i64 %51
  %53 = getelementptr inbounds i32, i32* %52, i64 -1
  %54 = icmp ult i32* %50, %53
  br i1 %54, label %55, label %61

55:                                               ; preds = %48, %55
  %56 = phi i32* [ %59, %55 ], [ %50, %48 ]
  %57 = load i32, i32* %56, align 4, !tbaa !5
  %58 = call i32 (i8*, ...) @printf(i8* nonnull dereferenceable(1) getelementptr inbounds ([4 x i8], [4 x i8]* @.str.1, i64 0, i64 0), i32 %57)
  %59 = getelementptr inbounds i32, i32* %56, i64 1
  %60 = icmp ult i32* %59, %53
  br i1 %60, label %55, label %61, !llvm.loop !13

61:                                               ; preds = %55, %48
  %62 = add nsw i32 %49, -1
  %63 = sext i32 %62 to i64
  %64 = getelementptr inbounds [300 x i32], [300 x i32]* %2, i64 0, i64 %63
  %65 = load i32, i32* %64, align 4, !tbaa !5
  %66 = call i32 (i8*, ...) @printf(i8* nonnull dereferenceable(1) getelementptr inbounds ([3 x i8], [3 x i8]* @.str, i64 0, i64 0), i32 %65)
  call void @llvm.lifetime.end.p0i8(i64 4, i8* nonnull %6) #3
  call void @llvm.lifetime.end.p0i8(i64 1200, i8* nonnull %5) #3
  call void @llvm.lifetime.end.p0i8(i64 1200, i8* nonnull %4) #3
  ret void
}

; Function Attrs: argmemonly mustprogress nofree nosync nounwind willreturn
declare void @llvm.lifetime.start.p0i8(i64 immarg, i8* nocapture) #1

; Function Attrs: nofree nounwind
declare noundef i32 @__isoc99_scanf(i8* nocapture noundef readonly, ...) local_unnamed_addr #2

; Function Attrs: nofree nounwind
declare noundef i32 @printf(i8* nocapture noundef readonly, ...) local_unnamed_addr #2

; Function Attrs: argmemonly mustprogress nofree nosync nounwind willreturn
declare void @llvm.lifetime.end.p0i8(i64 immarg, i8* nocapture) #1


!llvm.module.flags = !{!0, !1, !2, !3}
!llvm.ident = !{!4}

!0 = !{i32 1, !"wchar_size", i32 4}
!1 = !{i32 7, !"PIC Level", i32 2}
!2 = !{i32 7, !"PIE Level", i32 2}
!3 = !{i32 7, !"uwtable", i32 1}
!4 = !{!"clang version 13.0.0"}
!5 = !{!6, !6, i64 0}
!6 = !{!"int", !7, i64 0}
!7 = !{!"omnipotent char", !8, i64 0}
!8 = !{!"Simple C/C++ TBAA"}
!9 = distinct !{!9, !10}
!10 = !{!"llvm.loop.mustprogress"}
!11 = distinct !{!11, !10}
!12 = distinct !{!12, !10}
!13 = distinct !{!13, !10}
